; Function Attrs: mustprogress uwtable
define void @_ZN4pkpy10SourceDataC2ERKNS_3StrENS_11CompileModeE(ptr noundef nonnull align 8 dereferenceable(120) %0, ptr noundef nonnull align 8 dereferenceable(32) %1, i32 noundef %2) unnamed_addr #3 align 2 personality ptr @__gxx_personality_v0 {
  tail call void @_ZN4pkpy3StrC1ERKS0_(ptr noundef nonnull align 8 dereferenceable(32) %0, ptr noundef nonnull align 8 dereferenceable(32) %1)
  %4 = getelementptr inbounds i8, ptr %0, i64 32
  store i32 %2, ptr %4, align 8
  %5 = getelementptr inbounds i8, ptr %0, i64 40
  invoke void @_ZN4pkpy3StrC1Ev(ptr noundef nonnull align 8 dereferenceable(32) %5)
          to label %6 unwind label %32

6:                                                ; preds = %3
  %7 = getelementptr inbounds i8, ptr %0, i64 72
  store i32 0, ptr %7, align 8
  %8 = getelementptr inbounds i8, ptr %0, i64 76
  store i32 8, ptr %8, align 4
  %9 = tail call noundef ptr @_ZN4pkpy12pool64_allocEm(i64 noundef 64) #17
  %10 = getelementptr inbounds i8, ptr %0, i64 80
  store ptr %9, ptr %10, align 8
  %11 = getelementptr inbounds i8, ptr %0, i64 96
  tail call void @llvm.memset.p0.i64(ptr noundef nonnull align 8 dereferenceable(24) %11, i8 0, i64 24, i1 false)
  %12 = getelementptr inbounds i8, ptr %0, i64 48
  %13 = load ptr, ptr %12, align 8
  %14 = load i32, ptr %7, align 8
  %15 = load i32, ptr %8, align 4
  %16 = icmp eq i32 %14, %15
  br i1 %16, label %17, label %26

17:                                               ; preds = %6
  %18 = shl nsw i32 %14, 1
  %.not.i.i = icmp slt i32 %14, %18
  br i1 %.not.i.i, label %19, label %26

19:                                               ; preds = %17
  store i32 %18, ptr %8, align 4
  %20 = shl nsw i32 %14, 4
  %21 = sext i32 %20 to i64
  %22 = tail call noundef ptr @_ZN4pkpy12pool64_allocEm(i64 noundef %21) #17
  store ptr %22, ptr %10, align 8
  %.not6.i.i = icmp eq ptr %9, null
  %.pre2.i = load i32, ptr %7, align 8
  br i1 %.not6.i.i, label %26, label %23

23:                                               ; preds = %19
  %24 = shl nsw i32 %.pre2.i, 3
  %25 = sext i32 %24 to i64
  tail call void @llvm.memcpy.p0.p0.i64(ptr align 8 %22, ptr nonnull align 8 %9, i64 %25, i1 false)
  tail call void @_ZN4pkpy14pool64_deallocEPv(ptr noundef nonnull %9) #17
  %.pre.i = load i32, ptr %7, align 8
  %.pre = load ptr, ptr %10, align 8
  br label %26

26:                                               ; preds = %23, %19, %17, %6
  %27 = phi ptr [ %.pre, %23 ], [ %22, %19 ], [ %9, %17 ], [ %9, %6 ]
  %28 = phi i32 [ %.pre.i, %23 ], [ %.pre2.i, %19 ], [ %14, %17 ], [ %14, %6 ]
  %29 = add nsw i32 %28, 1
  store i32 %29, ptr %7, align 8
  %30 = sext i32 %28 to i64
  %31 = getelementptr inbounds ptr, ptr %27, i64 %30
  store ptr %13, ptr %31, align 8
  ret void

32:                                               ; preds = %3
  %33 = landingpad { ptr, i32 }
          cleanup
  tail call void @_ZN4pkpy3StrD1Ev(ptr noundef nonnull align 8 dereferenceable(32) %0) #17
  resume { ptr, i32 } %33
}